; Function Attrs: nofree norecurse nosync nounwind memory(argmem: readwrite) uwtable
define internal void @put_vp8_epel4_h6_c(ptr noundef writeonly captures(none) %0, i64 noundef %1, ptr noundef readonly captures(none) %2, i64 noundef %3, i32 noundef %4, i32 noundef %5, i32 %6) #1 {
  %8 = icmp sgt i32 %4, 0
  br i1 %8, label %.preheader.lr.ph, label %._crit_edge

.preheader.lr.ph:                                 ; preds = %7
  %9 = add nsw i32 %5, -1
  %10 = sext i32 %9 to i64
  %11 = getelementptr inbounds [7 x [6 x i8]], ptr @subpel_filters, i64 0, i64 %10
  %12 = getelementptr inbounds nuw i8, ptr %11, i64 2
  %13 = load i8, ptr %12, align 2, !tbaa !10
  %14 = zext i8 %13 to i32
  %15 = getelementptr inbounds nuw i8, ptr %11, i64 1
  %16 = load i8, ptr %15, align 1, !tbaa !10
  %17 = zext i8 %16 to i32
  %18 = load i8, ptr %11, align 2, !tbaa !10
  %19 = zext i8 %18 to i32
  %20 = getelementptr inbounds nuw i8, ptr %11, i64 3
  %21 = load i8, ptr %20, align 1, !tbaa !10
  %22 = zext i8 %21 to i32
  %23 = getelementptr inbounds nuw i8, ptr %11, i64 4
  %24 = load i8, ptr %23, align 2, !tbaa !10
  %25 = zext i8 %24 to i32
  %26 = getelementptr inbounds nuw i8, ptr %11, i64 5
  %27 = load i8, ptr %26, align 1, !tbaa !10
  %28 = zext i8 %27 to i32
  br label %.preheader

.preheader:                                       ; preds = %.preheader.lr.ph, %65
  %.038 = phi i32 [ 0, %.preheader.lr.ph ], [ %68, %65 ]
  %.03137 = phi ptr [ %0, %.preheader.lr.ph ], [ %66, %65 ]
  %.03236 = phi ptr [ %2, %.preheader.lr.ph ], [ %67, %65 ]
  br label %29

29:                                               ; preds = %.preheader, %29
  %indvars.iv = phi i64 [ 0, %.preheader ], [ %indvars.iv.next, %29 ]
  %30 = getelementptr inbounds nuw i8, ptr %.03236, i64 %indvars.iv
  %31 = load i8, ptr %30, align 1, !tbaa !10
  %32 = zext i8 %31 to i32
  %33 = mul nuw nsw i32 %32, %14
  %34 = getelementptr i8, ptr %30, i64 -1
  %35 = load i8, ptr %34, align 1, !tbaa !10
  %36 = zext i8 %35 to i32
  %37 = mul nuw nsw i32 %17, %36
  %38 = getelementptr i8, ptr %30, i64 -2
  %39 = load i8, ptr %38, align 1, !tbaa !10
  %40 = zext i8 %39 to i32
  %41 = mul nuw nsw i32 %40, %19
  %indvars.iv.next = add nuw nsw i64 %indvars.iv, 1
  %42 = getelementptr inbounds nuw i8, ptr %.03236, i64 %indvars.iv.next
  %43 = load i8, ptr %42, align 1, !tbaa !10
  %44 = zext i8 %43 to i32
  %45 = mul nuw nsw i32 %44, %22
  %46 = getelementptr inbounds nuw i8, ptr %30, i64 2
  %47 = load i8, ptr %46, align 1, !tbaa !10
  %48 = zext i8 %47 to i32
  %49 = mul nuw nsw i32 %25, %48
  %50 = getelementptr inbounds nuw i8, ptr %30, i64 3
  %51 = load i8, ptr %50, align 1, !tbaa !10
  %52 = zext i8 %51 to i32
  %53 = mul nuw nsw i32 %52, %28
  %54 = add nuw nsw i32 %49, %37
  %55 = add nuw nsw i32 %33, 64
  %56 = add nuw nsw i32 %55, %41
  %57 = add nuw nsw i32 %56, %45
  %58 = add nuw nsw i32 %57, %53
  %59 = sub nsw i32 %58, %54
  %60 = ashr i32 %59, 7
  %61 = sext i32 %60 to i64
  %62 = getelementptr inbounds i8, ptr getelementptr inbounds nuw (i8, ptr @ff_crop_tab, i64 1024), i64 %61
  %63 = load i8, ptr %62, align 1, !tbaa !10
  %64 = getelementptr inbounds nuw i8, ptr %.03137, i64 %indvars.iv
  store i8 %63, ptr %64, align 1, !tbaa !10
  %exitcond.not = icmp eq i64 %indvars.iv.next, 4
  br i1 %exitcond.not, label %65, label %29, !llvm.loop !63

65:                                               ; preds = %29
  %66 = getelementptr inbounds i8, ptr %.03137, i64 %1
  %67 = getelementptr inbounds i8, ptr %.03236, i64 %3
  %68 = add nuw nsw i32 %.038, 1
  %exitcond40.not = icmp eq i32 %68, %4
  br i1 %exitcond40.not, label %._crit_edge, label %.preheader, !llvm.loop !64

._crit_edge:                                      ; preds = %65, %7
  ret void
}